target datalayout = "e-m:e-p270:32:32-p271:32:32-p272:64:64-i64:64-i128:128-f80:128-n8:16:32:64-S128"
target triple = "x86_64-pc-linux-gnu"

%struct.evp_cipher_ctx_st = type { ptr, ptr, ptr, i32, i32, i32, [16 x i8], [16 x i8], [32 x i8], i32, i32, i32, i32, [32 x i8] }
%struct.EVP_RC2_KEY = type { i32, %struct.rc2_key_st }
%struct.rc2_key_st = type { [64 x i16] }

; Function Attrs: nounwind uwtable
define internal void @RC2_set_key(ptr noundef %0, i32 noundef %1, ptr noundef %2, i32 noundef %3) #0 {
  %5 = alloca ptr, align 8
  %6 = alloca i32, align 4
  %7 = alloca ptr, align 8
  %8 = alloca i32, align 4
  %9 = alloca i32, align 4
  %10 = alloca i32, align 4
  %11 = alloca ptr, align 8
  %12 = alloca ptr, align 8
  %13 = alloca i32, align 4
  %14 = alloca i32, align 4
  store ptr %0, ptr %5, align 8, !tbaa !27
  store i32 %1, ptr %6, align 4, !tbaa !13
  store ptr %2, ptr %7, align 8, !tbaa !11
  store i32 %3, ptr %8, align 4, !tbaa !13
  call void @llvm.lifetime.start.p0(i64 4, ptr %9) #3
  call void @llvm.lifetime.start.p0(i64 4, ptr %10) #3
  call void @llvm.lifetime.start.p0(i64 8, ptr %11) #3
  call void @llvm.lifetime.start.p0(i64 8, ptr %12) #3
  call void @llvm.lifetime.start.p0(i64 4, ptr %13) #3
  call void @llvm.lifetime.start.p0(i64 4, ptr %14) #3
  %15 = load ptr, ptr %5, align 8, !tbaa !27
  %16 = getelementptr inbounds nuw %struct.rc2_key_st, ptr %15, i32 0, i32 0
  %17 = getelementptr inbounds [64 x i16], ptr %16, i64 0, i64 0
  store ptr %17, ptr %11, align 8, !tbaa !11
  %18 = load ptr, ptr %11, align 8, !tbaa !11
  store i8 0, ptr %18, align 1, !tbaa !29
  %19 = load i32, ptr %6, align 4, !tbaa !13
  %20 = icmp sgt i32 %19, 128
  br i1 %20, label %21, label %22

21:                                               ; preds = %4
  store i32 128, ptr %6, align 4, !tbaa !13
  br label %22

22:                                               ; preds = %21, %4
  %23 = load i32, ptr %8, align 4, !tbaa !13
  %24 = icmp sle i32 %23, 0
  br i1 %24, label %25, label %26

25:                                               ; preds = %22
  store i32 1024, ptr %8, align 4, !tbaa !13
  br label %26

26:                                               ; preds = %25, %22
  %27 = load i32, ptr %8, align 4, !tbaa !13
  %28 = icmp sgt i32 %27, 1024
  br i1 %28, label %29, label %30

29:                                               ; preds = %26
  store i32 1024, ptr %8, align 4, !tbaa !13
  br label %30

30:                                               ; preds = %29, %26
  store i32 0, ptr %9, align 4, !tbaa !13
  br label %31

31:                                               ; preds = %45, %30
  %32 = load i32, ptr %9, align 4, !tbaa !13
  %33 = load i32, ptr %6, align 4, !tbaa !13
  %34 = icmp slt i32 %32, %33
  br i1 %34, label %35, label %48

35:                                               ; preds = %31
  %36 = load ptr, ptr %7, align 8, !tbaa !11
  %37 = load i32, ptr %9, align 4, !tbaa !13
  %38 = sext i32 %37 to i64
  %39 = getelementptr inbounds i8, ptr %36, i64 %38
  %40 = load i8, ptr %39, align 1, !tbaa !29
  %41 = load ptr, ptr %11, align 8, !tbaa !11
  %42 = load i32, ptr %9, align 4, !tbaa !13
  %43 = sext i32 %42 to i64
  %44 = getelementptr inbounds i8, ptr %41, i64 %43
  store i8 %40, ptr %44, align 1, !tbaa !29
  br label %45

45:                                               ; preds = %35
  %46 = load i32, ptr %9, align 4, !tbaa !13
  %47 = add nsw i32 %46, 1
  store i32 %47, ptr %9, align 4, !tbaa !13
  br label %31, !llvm.loop !30

48:                                               ; preds = %31
  %49 = load ptr, ptr %11, align 8, !tbaa !11
  %50 = load i32, ptr %6, align 4, !tbaa !13
  %51 = sub nsw i32 %50, 1
  %52 = sext i32 %51 to i64
  %53 = getelementptr inbounds i8, ptr %49, i64 %52
  %54 = load i8, ptr %53, align 1, !tbaa !29
  %55 = zext i8 %54 to i32
  store i32 %55, ptr %14, align 4, !tbaa !13
  store i32 0, ptr %10, align 4, !tbaa !13
  %56 = load i32, ptr %6, align 4, !tbaa !13
  store i32 %56, ptr %9, align 4, !tbaa !13
  br label %57

57:                                               ; preds = %80, %48
  %58 = load i32, ptr %9, align 4, !tbaa !13
  %59 = icmp slt i32 %58, 128
  br i1 %59, label %60, label %85

60:                                               ; preds = %57
  %61 = load ptr, ptr %11, align 8, !tbaa !11
  %62 = load i32, ptr %10, align 4, !tbaa !13
  %63 = sext i32 %62 to i64
  %64 = getelementptr inbounds i8, ptr %61, i64 %63
  %65 = load i8, ptr %64, align 1, !tbaa !29
  %66 = zext i8 %65 to i32
  %67 = load i32, ptr %14, align 4, !tbaa !13
  %68 = add i32 %66, %67
  %69 = and i32 %68, 255
  %70 = zext i32 %69 to i64
  %71 = getelementptr inbounds nuw [256 x i8], ptr @key_table, i64 0, i64 %70
  %72 = load i8, ptr %71, align 1, !tbaa !29
  %73 = zext i8 %72 to i32
  store i32 %73, ptr %14, align 4, !tbaa !13
  %74 = load i32, ptr %14, align 4, !tbaa !13
  %75 = trunc i32 %74 to i8
  %76 = load ptr, ptr %11, align 8, !tbaa !11
  %77 = load i32, ptr %9, align 4, !tbaa !13
  %78 = sext i32 %77 to i64
  %79 = getelementptr inbounds i8, ptr %76, i64 %78
  store i8 %75, ptr %79, align 1, !tbaa !29
  br label %80

80:                                               ; preds = %60
  %81 = load i32, ptr %9, align 4, !tbaa !13
  %82 = add nsw i32 %81, 1
  store i32 %82, ptr %9, align 4, !tbaa !13
  %83 = load i32, ptr %10, align 4, !tbaa !13
  %84 = add nsw i32 %83, 1
  store i32 %84, ptr %10, align 4, !tbaa !13
  br label %57, !llvm.loop !31

85:                                               ; preds = %57
  %86 = load i32, ptr %8, align 4, !tbaa !13
  %87 = add nsw i32 %86, 7
  %88 = ashr i32 %87, 3
  store i32 %88, ptr %10, align 4, !tbaa !13
  %89 = load i32, ptr %10, align 4, !tbaa !13
  %90 = sub nsw i32 128, %89
  store i32 %90, ptr %9, align 4, !tbaa !13
  %91 = load i32, ptr %8, align 4, !tbaa !13
  %92 = sub nsw i32 0, %91
  %93 = and i32 %92, 7
  %94 = ashr i32 255, %93
  store i32 %94, ptr %13, align 4, !tbaa !13
  %95 = load ptr, ptr %11, align 8, !tbaa !11
  %96 = load i32, ptr %9, align 4, !tbaa !13
  %97 = sext i32 %96 to i64
  %98 = getelementptr inbounds i8, ptr %95, i64 %97
  %99 = load i8, ptr %98, align 1, !tbaa !29
  %100 = zext i8 %99 to i32
  %101 = load i32, ptr %13, align 4, !tbaa !13
  %102 = and i32 %100, %101
  %103 = zext i32 %102 to i64
  %104 = getelementptr inbounds nuw [256 x i8], ptr @key_table, i64 0, i64 %103
  %105 = load i8, ptr %104, align 1, !tbaa !29
  %106 = zext i8 %105 to i32
  store i32 %106, ptr %14, align 4, !tbaa !13
  %107 = load i32, ptr %14, align 4, !tbaa !13
  %108 = trunc i32 %107 to i8
  %109 = load ptr, ptr %11, align 8, !tbaa !11
  %110 = load i32, ptr %9, align 4, !tbaa !13
  %111 = sext i32 %110 to i64
  %112 = getelementptr inbounds i8, ptr %109, i64 %111
  store i8 %108, ptr %112, align 1, !tbaa !29
  br label %113

113:                                              ; preds = %117, %85
  %114 = load i32, ptr %9, align 4, !tbaa !13
  %115 = add nsw i32 %114, -1
  store i32 %115, ptr %9, align 4, !tbaa !13
  %116 = icmp ne i32 %114, 0
  br i1 %116, label %117, label %138

117:                                              ; preds = %113
  %118 = load ptr, ptr %11, align 8, !tbaa !11
  %119 = load i32, ptr %9, align 4, !tbaa !13
  %120 = load i32, ptr %10, align 4, !tbaa !13
  %121 = add nsw i32 %119, %120
  %122 = sext i32 %121 to i64
  %123 = getelementptr inbounds i8, ptr %118, i64 %122
  %124 = load i8, ptr %123, align 1, !tbaa !29
  %125 = zext i8 %124 to i32
  %126 = load i32, ptr %14, align 4, !tbaa !13
  %127 = xor i32 %125, %126
  %128 = zext i32 %127 to i64
  %129 = getelementptr inbounds nuw [256 x i8], ptr @key_table, i64 0, i64 %128
  %130 = load i8, ptr %129, align 1, !tbaa !29
  %131 = zext i8 %130 to i32
  store i32 %131, ptr %14, align 4, !tbaa !13
  %132 = load i32, ptr %14, align 4, !tbaa !13
  %133 = trunc i32 %132 to i8
  %134 = load ptr, ptr %11, align 8, !tbaa !11
  %135 = load i32, ptr %9, align 4, !tbaa !13
  %136 = sext i32 %135 to i64
  %137 = getelementptr inbounds i8, ptr %134, i64 %136
  store i8 %133, ptr %137, align 1, !tbaa !29
  br label %113, !llvm.loop !32

138:                                              ; preds = %113
  %139 = load ptr, ptr %5, align 8, !tbaa !27
  %140 = getelementptr inbounds nuw %struct.rc2_key_st, ptr %139, i32 0, i32 0
  %141 = getelementptr inbounds [64 x i16], ptr %140, i64 0, i64 63
  store ptr %141, ptr %12, align 8, !tbaa !33
  store i32 127, ptr %9, align 4, !tbaa !13
  br label %142

142:                                              ; preds = %165, %138
  %143 = load i32, ptr %9, align 4, !tbaa !13
  %144 = icmp sge i32 %143, 0
  br i1 %144, label %145, label %168

145:                                              ; preds = %142
  %146 = load ptr, ptr %11, align 8, !tbaa !11
  %147 = load i32, ptr %9, align 4, !tbaa !13
  %148 = sext i32 %147 to i64
  %149 = getelementptr inbounds i8, ptr %146, i64 %148
  %150 = load i8, ptr %149, align 1, !tbaa !29
  %151 = zext i8 %150 to i32
  %152 = shl i32 %151, 8
  %153 = load ptr, ptr %11, align 8, !tbaa !11
  %154 = load i32, ptr %9, align 4, !tbaa !13
  %155 = sub nsw i32 %154, 1
  %156 = sext i32 %155 to i64
  %157 = getelementptr inbounds i8, ptr %153, i64 %156
  %158 = load i8, ptr %157, align 1, !tbaa !29
  %159 = zext i8 %158 to i32
  %160 = or i32 %152, %159
  %161 = and i32 %160, 65535
  %162 = trunc i32 %161 to i16
  %163 = load ptr, ptr %12, align 8, !tbaa !33
  %164 = getelementptr inbounds i16, ptr %163, i32 -1
  store ptr %164, ptr %12, align 8, !tbaa !33
  store i16 %162, ptr %163, align 2, !tbaa !35
  br label %165

165:                                              ; preds = %145
  %166 = load i32, ptr %9, align 4, !tbaa !13
  %167 = sub nsw i32 %166, 2
  store i32 %167, ptr %9, align 4, !tbaa !13
  br label %142, !llvm.loop !37

168:                                              ; preds = %142
  call void @llvm.lifetime.end.p0(i64 4, ptr %14) #3
  call void @llvm.lifetime.end.p0(i64 4, ptr %13) #3
  call void @llvm.lifetime.end.p0(i64 8, ptr %12) #3
  call void @llvm.lifetime.end.p0(i64 8, ptr %11) #3
  call void @llvm.lifetime.end.p0(i64 4, ptr %10) #3
  call void @llvm.lifetime.end.p0(i64 4, ptr %9) #3
  ret void
}

; Function Attrs: nounwind uwtable
define internal i32 @rc2_init_key(ptr noundef %0, ptr noundef %1, ptr noundef %2, i32 noundef %3) #0 {
  %5 = alloca ptr, align 8
  %6 = alloca ptr, align 8
  %7 = alloca ptr, align 8
  %8 = alloca i32, align 4
  %9 = alloca ptr, align 8
  store ptr %0, ptr %5, align 8, !tbaa !6
  store ptr %1, ptr %6, align 8, !tbaa !11
  store ptr %2, ptr %7, align 8, !tbaa !11
  store i32 %3, ptr %8, align 4, !tbaa !13
  call void @llvm.lifetime.start.p0(i64 8, ptr %9) #3
  %10 = load ptr, ptr %5, align 8, !tbaa !6
  %11 = getelementptr inbounds nuw %struct.evp_cipher_ctx_st, ptr %10, i32 0, i32 2
  %12 = load ptr, ptr %11, align 8, !tbaa !15
  store ptr %12, ptr %9, align 8, !tbaa !18
  %13 = load ptr, ptr %9, align 8, !tbaa !18
  %14 = getelementptr inbounds nuw %struct.EVP_RC2_KEY, ptr %13, i32 0, i32 1
  %15 = load ptr, ptr %5, align 8, !tbaa !6
  %16 = call i32 @EVP_CIPHER_CTX_key_length(ptr noundef %15)
  %17 = load ptr, ptr %6, align 8, !tbaa !11
  %18 = load ptr, ptr %9, align 8, !tbaa !18
  %19 = getelementptr inbounds nuw %struct.EVP_RC2_KEY, ptr %18, i32 0, i32 0
  %20 = load i32, ptr %19, align 4, !tbaa !19
  call void @RC2_set_key(ptr noundef %14, i32 noundef %16, ptr noundef %17, i32 noundef %20)
  call void @llvm.lifetime.end.p0(i64 8, ptr %9) #3
  ret i32 1
}