; Function Attrs: nounwind uwtable
define internal noundef i32 @rc2_init_key(ptr noundef %0, ptr noundef readonly captures(none) %1, ptr readnone captures(none) %2, i32 %3) #1 {
  %5 = getelementptr inbounds nuw i8, ptr %0, i64 16
  %6 = load ptr, ptr %5, align 8, !tbaa !6
  %7 = getelementptr inbounds nuw i8, ptr %6, i64 4
  %8 = tail call i32 @EVP_CIPHER_CTX_key_length(ptr noundef %0) #7
  %9 = load i32, ptr %6, align 4, !tbaa !13
  store i8 0, ptr %7, align 1, !tbaa !16
  %spec.store.select.i = tail call i32 @llvm.smin.i32(i32 %8, i32 128)
  %10 = icmp slt i32 %9, 1
  %11 = tail call i32 @llvm.umin.i32(i32 %9, i32 1024)
  %spec.store.select1.i = select i1 %10, i32 1024, i32 %11
  %12 = icmp sgt i32 %8, 0
  br i1 %12, label %.lr.ph.preheader.i, label %.lr.ph59.preheader.i

.lr.ph.preheader.i:                               ; preds = %4
  %wide.trip.count.i = zext nneg i32 %spec.store.select.i to i64
  br label %.lr.ph.i

.lr.ph.i:                                         ; preds = %.lr.ph.i, %.lr.ph.preheader.i
  %indvars.iv.i = phi i64 [ 0, %.lr.ph.preheader.i ], [ %indvars.iv.next.i, %.lr.ph.i ]
  %13 = getelementptr inbounds nuw i8, ptr %1, i64 %indvars.iv.i
  %14 = load i8, ptr %13, align 1, !tbaa !16
  %15 = getelementptr inbounds nuw i8, ptr %7, i64 %indvars.iv.i
  store i8 %14, ptr %15, align 1, !tbaa !16
  %indvars.iv.next.i = add nuw nsw i64 %indvars.iv.i, 1
  %exitcond.not.i = icmp eq i64 %indvars.iv.next.i, %wide.trip.count.i
  br i1 %exitcond.not.i, label %._crit_edge.i, label %.lr.ph.i, !llvm.loop !17

._crit_edge.i:                                    ; preds = %.lr.ph.i
  %16 = icmp slt i32 %8, 128
  br i1 %16, label %.lr.ph59.preheader.i, label %._crit_edge60.i

.lr.ph59.preheader.i:                             ; preds = %._crit_edge.i, %4
  %17 = sext i32 %spec.store.select.i to i64
  %18 = getelementptr i8, ptr %7, i64 %17
  %19 = getelementptr i8, ptr %18, i64 -1
  %20 = load i8, ptr %19, align 1, !tbaa !16
  %21 = sext i32 %8 to i64
  %22 = sub i32 128, %spec.store.select.i
  %wide.trip.count74.i = zext i32 %22 to i64
  br label %.lr.ph59.i

.lr.ph59.i:                                       ; preds = %.lr.ph59.i, %.lr.ph59.preheader.i
  %indvars.iv72.i = phi i64 [ %21, %.lr.ph59.preheader.i ], [ %indvars.iv.next73.i, %.lr.ph59.i ]
  %indvars.iv70.i = phi i64 [ 0, %.lr.ph59.preheader.i ], [ %indvars.iv.next71.i, %.lr.ph59.i ]
  %.0.in57.i = phi i8 [ %20, %.lr.ph59.preheader.i ], [ %27, %.lr.ph59.i ]
  %23 = getelementptr inbounds nuw i8, ptr %7, i64 %indvars.iv70.i
  %24 = load i8, ptr %23, align 1, !tbaa !16
  %.narrow.i = add i8 %24, %.0.in57.i
  %25 = zext i8 %.narrow.i to i64
  %26 = getelementptr inbounds nuw [256 x i8], ptr @key_table, i64 0, i64 %25
  %27 = load i8, ptr %26, align 1, !tbaa !16
  %28 = getelementptr inbounds i8, ptr %7, i64 %indvars.iv72.i
  store i8 %27, ptr %28, align 1, !tbaa !16
  %indvars.iv.next73.i = add nsw i64 %indvars.iv72.i, 1
  %indvars.iv.next71.i = add nuw nsw i64 %indvars.iv70.i, 1
  %exitcond75.not.i = icmp eq i64 %indvars.iv.next71.i, %wide.trip.count74.i
  br i1 %exitcond75.not.i, label %._crit_edge60.i, label %.lr.ph59.i, !llvm.loop !19

._crit_edge60.i:                                  ; preds = %.lr.ph59.i, %._crit_edge.i
  %29 = add nuw nsw i32 %spec.store.select1.i, 7
  %30 = lshr i32 %29, 3
  %31 = sub nuw nsw i32 128, %30
  %32 = sub nsw i32 0, %spec.store.select1.i
  %33 = and i32 %32, 7
  %34 = lshr i32 255, %33
  %35 = zext nneg i32 %31 to i64
  %36 = getelementptr inbounds nuw i8, ptr %7, i64 %35
  %37 = load i8, ptr %36, align 1, !tbaa !16
  %38 = zext i8 %37 to i32
  %39 = and i32 %34, %38
  %40 = zext nneg i32 %39 to i64
  %41 = getelementptr inbounds nuw [256 x i8], ptr @key_table, i64 0, i64 %40
  %42 = load i8, ptr %41, align 1, !tbaa !16
  store i8 %42, ptr %36, align 1, !tbaa !16
  %.not61.i = icmp eq i32 %30, 128
  br i1 %.not61.i, label %._crit_edge66.i, label %.lr.ph65.preheader.i

.lr.ph65.preheader.i:                             ; preds = %._crit_edge60.i
  %43 = zext nneg i32 %30 to i64
  %invariant.gep81.i = getelementptr i8, ptr %7, i64 %43
  br label %.lr.ph65.i

.lr.ph65.i:                                       ; preds = %.lr.ph65.i, %.lr.ph65.preheader.i
  %indvars.iv76.i = phi i64 [ %35, %.lr.ph65.preheader.i ], [ %indvars.iv.next77.i, %.lr.ph65.i ]
  %.1.in63.i = phi i8 [ %42, %.lr.ph65.preheader.i ], [ %48, %.lr.ph65.i ]
  %indvars.iv.next77.i = add nsw i64 %indvars.iv76.i, -1
  %gep82.i = getelementptr i8, ptr %invariant.gep81.i, i64 %indvars.iv.next77.i
  %44 = load i8, ptr %gep82.i, align 1, !tbaa !16
  %45 = xor i8 %44, %.1.in63.i
  %46 = zext i8 %45 to i64
  %47 = getelementptr inbounds nuw [256 x i8], ptr @key_table, i64 0, i64 %46
  %48 = load i8, ptr %47, align 1, !tbaa !16
  %49 = getelementptr inbounds i8, ptr %7, i64 %indvars.iv.next77.i
  store i8 %48, ptr %49, align 1, !tbaa !16
  %50 = icmp eq i64 %indvars.iv.next77.i, 0
  br i1 %50, label %._crit_edge66.i, label %.lr.ph65.i, !llvm.loop !20

._crit_edge66.i:                                  ; preds = %.lr.ph65.i, %._crit_edge60.i
  %51 = getelementptr inbounds nuw i8, ptr %6, i64 130
  %invariant.gep.i = getelementptr i8, ptr %6, i64 3
  br label %52

52:                                               ; preds = %52, %._crit_edge66.i
  %indvars.iv78.i = phi i64 [ 127, %._crit_edge66.i ], [ %indvars.iv.next79.i, %52 ]
  %.05068.i = phi ptr [ %51, %._crit_edge66.i ], [ %54, %52 ]
  %gep.i = getelementptr i8, ptr %invariant.gep.i, i64 %indvars.iv78.i
  %53 = load i16, ptr %gep.i, align 1
  %54 = getelementptr inbounds i8, ptr %.05068.i, i64 -2
  store i16 %53, ptr %.05068.i, align 2, !tbaa !21
  %indvars.iv.next79.i = add nsw i64 %indvars.iv78.i, -2
  %55 = icmp ugt i64 %indvars.iv78.i, 1
  br i1 %55, label %52, label %RC2_set_key.exit, !llvm.loop !23

RC2_set_key.exit:                                 ; preds = %52
  ret i32 1
}